; Function Attrs: nounwind uwtable
define internal fastcc nonnull ptr @expand_(ptr noundef %0) unnamed_addr #0 {
  %.not = icmp eq ptr %0, null
  br i1 %.not, label %2, label %5

2:                                                ; preds = %1
  %3 = tail call ptr @calloc_arena(i64 noundef 72) #9
  %4 = getelementptr inbounds i8, ptr %3, i64 4
  store i32 8, ptr %4, align 4
  br label %7

5:                                                ; preds = %1
  %6 = getelementptr inbounds i8, ptr %0, i64 -8
  %.phi.trans.insert = getelementptr inbounds i8, ptr %0, i64 -4
  %.pre = load i32, ptr %.phi.trans.insert, align 4
  br label %7

7:                                                ; preds = %5, %2
  %8 = phi i32 [ %.pre, %5 ], [ 8, %2 ]
  %.0 = phi ptr [ %6, %5 ], [ %3, %2 ]
  %9 = load i32, ptr %.0, align 4
  %10 = icmp eq i32 %9, %8
  br i1 %10, label %11, label %25

11:                                               ; preds = %7
  %12 = getelementptr inbounds i8, ptr %.0, i64 4
  %13 = shl i32 %8, 1
  %14 = zext i32 %13 to i64
  %15 = shl nuw nsw i64 %14, 3
  %16 = or disjoint i64 %15, 8
  %17 = tail call ptr @calloc_arena(i64 noundef %16) #9
  %18 = getelementptr inbounds i8, ptr %17, i64 4
  store i32 %13, ptr %18, align 4
  %19 = load i32, ptr %12, align 4
  %20 = zext i32 %19 to i64
  %21 = shl nuw nsw i64 %20, 3
  %22 = add nuw nsw i64 %21, 8
  tail call void @llvm.memcpy.p0.p0.i64(ptr noundef nonnull align 4 dereferenceable(1) %17, ptr noundef nonnull align 4 dereferenceable(1) %.0, i64 %22, i1 false)
  %23 = load i32, ptr %18, align 4
  %24 = shl i32 %23, 1
  store i32 %24, ptr %18, align 4
  %.pre18 = load i32, ptr %17, align 4
  br label %25

25:                                               ; preds = %11, %7
  %26 = phi i32 [ %.pre18, %11 ], [ %9, %7 ]
  %.1 = phi ptr [ %17, %11 ], [ %.0, %7 ]
  %27 = add i32 %26, 1
  store i32 %27, ptr %.1, align 4
  %28 = getelementptr inbounds i8, ptr %.1, i64 8
  ret ptr %28
}